; Function Attrs: mustprogress uwtable
define void @_ZN7mitsuba6BitmapC2EOS0_(ptr noundef nonnull align 8 dereferenceable(64) %0, ptr nocapture noundef nonnull align 8 dereferenceable(64) %1) unnamed_addr #0 align 2 personality ptr @__gxx_personality_v0 {
  %3 = getelementptr inbounds i8, ptr %0, i64 8
  store i32 0, ptr %3, align 8
  store ptr getelementptr inbounds inrange(-16, 72) ({ [11 x ptr] }, ptr @_ZTVN7mitsuba6BitmapE, i64 0, i32 0, i64 2), ptr %0, align 8
  %4 = getelementptr inbounds i8, ptr %0, i64 16
  %5 = getelementptr inbounds i8, ptr %1, i64 16
  %6 = load ptr, ptr %5, align 8
  store ptr null, ptr %5, align 8
  store ptr %6, ptr %4, align 8
  %7 = getelementptr inbounds i8, ptr %0, i64 24
  %8 = getelementptr inbounds i8, ptr %1, i64 24
  %9 = load i32, ptr %8, align 8
  store i32 %9, ptr %7, align 8
  %10 = getelementptr inbounds i8, ptr %0, i64 28
  %11 = getelementptr inbounds i8, ptr %1, i64 28
  %12 = load i32, ptr %11, align 4
  store i32 %12, ptr %10, align 4
  %13 = getelementptr inbounds i8, ptr %0, i64 32
  %14 = getelementptr inbounds i8, ptr %1, i64 32
  %15 = load i64, ptr %14, align 8
  store i64 %15, ptr %13, align 8
  %16 = getelementptr inbounds i8, ptr %0, i64 40
  %17 = getelementptr inbounds i8, ptr %1, i64 40
  %18 = load ptr, ptr %17, align 8
  store ptr %18, ptr %16, align 8
  store ptr null, ptr %17, align 8
  %19 = getelementptr inbounds i8, ptr %0, i64 48
  %20 = getelementptr inbounds i8, ptr %1, i64 48
  %21 = load i8, ptr %20, align 8
  %22 = and i8 %21, 1
  store i8 %22, ptr %19, align 8
  %23 = getelementptr inbounds i8, ptr %0, i64 49
  %24 = getelementptr inbounds i8, ptr %1, i64 49
  %25 = load i8, ptr %24, align 1
  %26 = and i8 %25, 1
  store i8 %26, ptr %23, align 1
  %27 = getelementptr inbounds i8, ptr %0, i64 50
  %28 = getelementptr inbounds i8, ptr %1, i64 50
  %29 = load i8, ptr %28, align 2
  %30 = and i8 %29, 1
  store i8 %30, ptr %27, align 2
  %31 = getelementptr inbounds i8, ptr %0, i64 56
  invoke void @_ZN7mitsuba10PropertiesC1Ev(ptr noundef nonnull align 8 dereferenceable(8) %31)
          to label %32 unwind label %33

32:                                               ; preds = %2
  ret void

33:                                               ; preds = %2
  %34 = landingpad { ptr, i32 }
          cleanup
  %35 = load ptr, ptr %16, align 8
  %.not.i = icmp eq ptr %35, null
  br i1 %.not.i, label %_ZN7mitsuba3refINS_6StructEED2Ev.exit, label %36

36:                                               ; preds = %33
  tail call void @_ZNK7mitsuba6Object7dec_refEb(ptr noundef nonnull align 8 dereferenceable(12) %35, i1 noundef zeroext true) #36
  br label %_ZN7mitsuba3refINS_6StructEED2Ev.exit

_ZN7mitsuba3refINS_6StructEED2Ev.exit:            ; preds = %33, %36
  %37 = load ptr, ptr %4, align 8
  store ptr null, ptr %4, align 8
  %.not.i.i = icmp eq ptr %37, null
  br i1 %.not.i.i, label %_ZNSt3__110unique_ptrIA_hNS_14default_deleteIS1_EEED2B8ne190000Ev.exit, label %_ZNKSt3__114default_deleteIA_hEclB8ne190000IhEENS2_20_EnableIfConvertibleIT_E4typeEPS5_.exit.i.i

_ZNKSt3__114default_deleteIA_hEclB8ne190000IhEENS2_20_EnableIfConvertibleIT_E4typeEPS5_.exit.i.i: ; preds = %_ZN7mitsuba3refINS_6StructEED2Ev.exit
  tail call void @_ZdaPv(ptr noundef nonnull %37) #35
  br label %_ZNSt3__110unique_ptrIA_hNS_14default_deleteIS1_EEED2B8ne190000Ev.exit

_ZNSt3__110unique_ptrIA_hNS_14default_deleteIS1_EEED2B8ne190000Ev.exit: ; preds = %_ZN7mitsuba3refINS_6StructEED2Ev.exit, %_ZNKSt3__114default_deleteIA_hEclB8ne190000IhEENS2_20_EnableIfConvertibleIT_E4typeEPS5_.exit.i.i
  tail call void @_ZN7mitsuba6ObjectD2Ev(ptr noundef nonnull align 8 dereferenceable(12) %0) #36
  resume { ptr, i32 } %34
}